
/home/jnz/ast-project/tmp/t-2/20010910-1.c.clean-mutation-2.c.gcc-12.o:     file format elf64-x86-64


Disassembly of section .text:

0000000000000000 <epic_init_ring>:
   0:	f3 0f 1e fa          	endbr64 
   4:	55                   	push   rbp
   5:	48 89 e5             	mov    rbp,rsp
   8:	48 89 7d e8          	mov    QWORD PTR [rbp-0x18],rdi
   c:	c7 45 fc 30 00 00 00 	mov    DWORD PTR [rbp-0x4],0x30
  13:	eb 3a                	jmp    4f <epic_init_ring+0x4f>
  15:	8b 45 fc             	mov    eax,DWORD PTR [rbp-0x4]
  18:	83 c0 2a             	add    eax,0x2a
  1b:	6b c0 6e             	imul   eax,eax,0x6e
  1e:	8d 48 4b             	lea    ecx,[rax+0x4b]
  21:	48 8b 45 e8          	mov    rax,QWORD PTR [rbp-0x18]
  25:	48 8b 00             	mov    rax,QWORD PTR [rax]
  28:	8b 55 fc             	mov    edx,DWORD PTR [rbp-0x4]
  2b:	48 63 d2             	movsxd rdx,edx
  2e:	48 c1 e2 02          	shl    rdx,0x2
  32:	48 01 d0             	add    rax,rdx
  35:	89 ca                	mov    edx,ecx
  37:	89 10                	mov    DWORD PTR [rax],edx
  39:	48 8b 45 e8          	mov    rax,QWORD PTR [rbp-0x18]
  3d:	8b 55 fc             	mov    edx,DWORD PTR [rbp-0x4]
  40:	48 63 d2             	movsxd rdx,edx
  43:	c7 44 90 08 0b 00 00 	mov    DWORD PTR [rax+rdx*4+0x8],0xb
  4a:	00 
  4b:	83 45 fc 01          	add    DWORD PTR [rbp-0x4],0x1
  4f:	83 7d fc 1b          	cmp    DWORD PTR [rbp-0x4],0x1b
  53:	7e c0                	jle    15 <epic_init_ring+0x15>
  55:	48 8b 45 e8          	mov    rax,QWORD PTR [rbp-0x18]
  59:	48 8b 00             	mov    rax,QWORD PTR [rax]
  5c:	8b 55 fc             	mov    edx,DWORD PTR [rbp-0x4]
  5f:	48 63 d2             	movsxd rdx,edx
  62:	48 c1 e2 02          	shl    rdx,0x2
  66:	48 83 ea 04          	sub    rdx,0x4
  6a:	48 01 d0             	add    rax,rdx
  6d:	c7 00 4d 00 00 00    	mov    DWORD PTR [rax],0x4d
  73:	90                   	nop
  74:	5d                   	pop    rbp
  75:	c3                   	ret    

0000000000000076 <main>:
  76:	f3 0f 1e fa          	endbr64 
  7a:	55                   	push   rbp
  7b:	48 89 e5             	mov    rbp,rsp
  7e:	48 81 ec d0 02 00 00 	sub    rsp,0x2d0
  85:	64 48 8b 04 25 28 00 	mov    rax,QWORD PTR fs:0x28
  8c:	00 00 
  8e:	48 89 45 f8          	mov    QWORD PTR [rbp-0x8],rax
  92:	31 c0                	xor    eax,eax
  94:	c7 85 3c fd ff ff 10 	mov    DWORD PTR [rbp-0x2c4],0x10
  9b:	00 00 00 
  9e:	eb 2d                	jmp    cd <main+0x57>
  a0:	8b 85 3c fd ff ff    	mov    eax,DWORD PTR [rbp-0x2c4]
  a6:	48 98                	cdqe   
  a8:	c7 84 85 00 fe ff ff 	mov    DWORD PTR [rbp+rax*4-0x200],0x44
  af:	44 00 00 00 
  b3:	8b 85 3c fd ff ff    	mov    eax,DWORD PTR [rbp-0x2c4]
  b9:	48 98                	cdqe   
  bb:	c7 84 85 48 fd ff ff 	mov    DWORD PTR [rbp+rax*4-0x2b8],0x18
  c2:	18 00 00 00 
  c6:	83 85 3c fd ff ff 01 	add    DWORD PTR [rbp-0x2c4],0x1
  cd:	83 bd 3c fd ff ff 0e 	cmp    DWORD PTR [rbp-0x2c4],0xe
  d4:	7e ca                	jle    a0 <main+0x2a>
  d6:	48 8d 85 00 fe ff ff 	lea    rax,[rbp-0x200]
  dd:	48 89 85 40 fd ff ff 	mov    QWORD PTR [rbp-0x2c0],rax
  e4:	48 8d 85 40 fd ff ff 	lea    rax,[rbp-0x2c0]
  eb:	48 89 c7             	mov    rdi,rax
  ee:	e8 0d ff ff ff       	call   0 <epic_init_ring>
  f3:	c7 85 3c fd ff ff 16 	mov    DWORD PTR [rbp-0x2c4],0x16
  fa:	00 00 00 
  fd:	eb 53                	jmp    152 <main+0xdc>
  ff:	8b 85 3c fd ff ff    	mov    eax,DWORD PTR [rbp-0x2c4]
 105:	48 98                	cdqe   
 107:	8b 84 85 00 fe ff ff 	mov    eax,DWORD PTR [rbp+rax*4-0x200]
 10e:	8b 95 3c fd ff ff    	mov    edx,DWORD PTR [rbp-0x2c4]
 114:	48 63 d2             	movsxd rdx,edx
 117:	48 8d 0c 95 00 00 00 	lea    rcx,[rdx*4+0x0]
 11e:	00 
 11f:	48 8d 15 00 00 00 00 	lea    rdx,[rip+0x0]        # 126 <main+0xb0>
 126:	8b 14 11             	mov    edx,DWORD PTR [rcx+rdx*1]
 129:	39 d0                	cmp    eax,edx
 12b:	74 05                	je     132 <main+0xbc>
 12d:	e8 00 00 00 00       	call   132 <main+0xbc>
 132:	8b 85 3c fd ff ff    	mov    eax,DWORD PTR [rbp-0x2c4]
 138:	48 98                	cdqe   
 13a:	8b 84 85 48 fd ff ff 	mov    eax,DWORD PTR [rbp+rax*4-0x2b8]
 141:	83 f8 1c             	cmp    eax,0x1c
 144:	74 05                	je     14b <main+0xd5>
 146:	e8 00 00 00 00       	call   14b <main+0xd5>
 14b:	83 85 3c fd ff ff 01 	add    DWORD PTR [rbp-0x2c4],0x1
 152:	83 bd 3c fd ff ff 18 	cmp    DWORD PTR [rbp-0x2c4],0x18
 159:	7e a4                	jle    ff <main+0x89>
 15b:	b8 70 00 00 00       	mov    eax,0x70
 160:	48 8b 55 f8          	mov    rdx,QWORD PTR [rbp-0x8]
 164:	64 48 2b 14 25 28 00 	sub    rdx,QWORD PTR fs:0x28
 16b:	00 00 
 16d:	74 05                	je     174 <main+0xfe>
 16f:	e8 00 00 00 00       	call   174 <main+0xfe>
 174:	c9                   	leave  
 175:	c3                   	ret    
