   0:	f3 0f 1e fa          	endbr64 
   4:	55                   	push   rbp
   5:	48 89 e5             	mov    rbp,rsp
   8:	48 83 ec 10          	sub    rsp,0x10
   c:	48 8d 05 00 00 00 00 	lea    rax,[rip+0x0]        # 13 <test_const_global_arrays+0x13>
  13:	48 89 45 f8          	mov    QWORD PTR [rbp-0x8],rax
  17:	48 8b 45 f8          	mov    rax,QWORD PTR [rbp-0x8]
  1b:	48 89 c7             	mov    rdi,rax
  1e:	e8 00 00 00 00       	call   23 <test_const_global_arrays+0x23>
  23:	89 45 f4             	mov    DWORD PTR [rbp-0xc],eax
  26:	83 7d f4 15          	cmp    DWORD PTR [rbp-0xc],0x15
  2a:	74 e0                	je     c <test_const_global_arrays+0xc>
  2c:	48 8b 45 f8          	mov    rax,QWORD PTR [rbp-0x8]
  30:	41 b8 30 00 00 00    	mov    r8d,0x30
  36:	48 89 c1             	mov    rcx,rax
  39:	48 8d 05 00 00 00 00 	lea    rax,[rip+0x0]        # 40 <test_const_global_arrays+0x40>
  40:	48 89 c2             	mov    rdx,rax
  43:	be 6c 00 00 00       	mov    esi,0x6c
  48:	48 8d 05 00 00 00 00 	lea    rax,[rip+0x0]        # 4f <test_const_global_arrays+0x4f>
  4f:	48 89 c7             	mov    rdi,rax
  52:	b8 00 00 00 00       	mov    eax,0x0
  57:	e8 00 00 00 00       	call   5c <test_const_global_arrays+0x5c>
  5c:	8b 05 00 00 00 00    	mov    eax,DWORD PTR [rip+0x0]        # 62 <test_const_global_arrays+0x62>
  62:	83 c0 01             	add    eax,0x1
  65:	89 05 00 00 00 00    	mov    DWORD PTR [rip+0x0],eax        # 6b <test_const_global_arrays+0x6b>
  6b:	eb 9f                	jmp    c <test_const_global_arrays+0xc>
  6d:	f3 0f 1e fa          	endbr64 
  71:	55                   	push   rbp
  72:	48 89 e5             	mov    rbp,rsp
  75:	48 81 ec f0 00 00 00 	sub    rsp,0xf0
  7c:	64 48 8b 04 25 28 00 	mov    rax,QWORD PTR fs:0x28
  83:	00 00 
  85:	48 89 45 f8          	mov    QWORD PTR [rbp-0x8],rax
  89:	31 c0                	xor    eax,eax
  8b:	48 c7 85 20 ff ff ff 	mov    QWORD PTR [rbp-0xe0],0x34333231
  92:	31 32 33 34 
  96:	48 c7 85 28 ff ff ff 	mov    QWORD PTR [rbp-0xd8],0x0
  9d:	00 00 00 00 
  a1:	c7 85 30 ff ff ff 00 	mov    DWORD PTR [rbp-0xd0],0x0
  a8:	00 00 00 
  ab:	66 c7 85 34 ff ff ff 	mov    WORD PTR [rbp-0xcc],0x0
  b2:	00 00 
  b4:	c6 85 36 ff ff ff 00 	mov    BYTE PTR [rbp-0xca],0x0
  bb:	48 c7 85 37 ff ff ff 	mov    QWORD PTR [rbp-0xc9],0x35
  c2:	35 00 00 00 
  c6:	48 c7 85 3f ff ff ff 	mov    QWORD PTR [rbp-0xc1],0x0
  cd:	00 00 00 00 
  d1:	c7 85 47 ff ff ff 00 	mov    DWORD PTR [rbp-0xb9],0x0
  d8:	00 00 00 
  db:	66 c7 85 4b ff ff ff 	mov    WORD PTR [rbp-0xb5],0x0
  e2:	00 00 
  e4:	c6 85 4d ff ff ff 00 	mov    BYTE PTR [rbp-0xb3],0x0
  eb:	48 c7 85 4e ff ff ff 	mov    QWORD PTR [rbp-0xb2],0x34333231
  f2:	31 32 33 34 
  f6:	48 c7 85 56 ff ff ff 	mov    QWORD PTR [rbp-0xaa],0x0
  fd:	00 00 00 00 
 101:	c7 85 5e ff ff ff 00 	mov    DWORD PTR [rbp-0xa2],0x0
 108:	00 00 00 
 10b:	66 c7 85 62 ff ff ff 	mov    WORD PTR [rbp-0x9e],0x0
 112:	00 00 
 114:	c6 85 64 ff ff ff 00 	mov    BYTE PTR [rbp-0x9c],0x0
 11b:	48 c7 85 65 ff ff ff 	mov    QWORD PTR [rbp-0x9b],0x3635
 122:	35 36 00 00 
 126:	48 c7 85 6d ff ff ff 	mov    QWORD PTR [rbp-0x93],0x0
 12d:	00 00 00 00 
 131:	c7 85 75 ff ff ff 00 	mov    DWORD PTR [rbp-0x8b],0x0
 138:	00 00 00 
 13b:	66 c7 85 79 ff ff ff 	mov    WORD PTR [rbp-0x87],0x0
 142:	00 00 
 144:	c6 85 7b ff ff ff 00 	mov    BYTE PTR [rbp-0x85],0x0
 14b:	48 c7 85 7c ff ff ff 	mov    QWORD PTR [rbp-0x84],0x34333231
 152:	31 32 33 34 
 156:	48 c7 45 84 00 00 00 	mov    QWORD PTR [rbp-0x7c],0x0
 15d:	00 
 15e:	c7 45 8c 00 00 00 00 	mov    DWORD PTR [rbp-0x74],0x0
 165:	66 c7 45 90 00 00    	mov    WORD PTR [rbp-0x70],0x0
 16b:	c6 45 92 00          	mov    BYTE PTR [rbp-0x6e],0x0
 16f:	48 c7 45 93 35 36 37 	mov    QWORD PTR [rbp-0x6d],0x373635
 176:	00 
 177:	48 c7 45 9b 00 00 00 	mov    QWORD PTR [rbp-0x65],0x0
 17e:	00 
 17f:	c7 45 a3 00 00 00 00 	mov    DWORD PTR [rbp-0x5d],0x0
 186:	66 c7 45 a7 00 00    	mov    WORD PTR [rbp-0x59],0x0
 18c:	c6 45 a9 00          	mov    BYTE PTR [rbp-0x57],0x0
 190:	48 c7 45 aa 31 32 33 	mov    QWORD PTR [rbp-0x56],0x34333231
 197:	34 
 198:	48 c7 45 b2 00 00 00 	mov    QWORD PTR [rbp-0x4e],0x0
 19f:	00 
 1a0:	c7 45 ba 00 00 00 00 	mov    DWORD PTR [rbp-0x46],0x0
 1a7:	66 c7 45 be 00 00    	mov    WORD PTR [rbp-0x42],0x0
 1ad:	c6 45 c0 00          	mov    BYTE PTR [rbp-0x40],0x0
 1b1:	48 c7 45 c1 35 36 37 	mov    QWORD PTR [rbp-0x3f],0x38373635
 1b8:	38 
 1b9:	48 c7 45 c9 00 00 00 	mov    QWORD PTR [rbp-0x37],0x0
 1c0:	00 
 1c1:	c7 45 d1 00 00 00 00 	mov    DWORD PTR [rbp-0x2f],0x0
 1c8:	66 c7 45 d5 00 00    	mov    WORD PTR [rbp-0x2b],0x0
 1ce:	c6 45 d7 00          	mov    BYTE PTR [rbp-0x29],0x0
 1d2:	48 c7 45 d8 39 00 00 	mov    QWORD PTR [rbp-0x28],0x39
 1d9:	00 
 1da:	48 c7 45 e0 00 00 00 	mov    QWORD PTR [rbp-0x20],0x0
 1e1:	00 
 1e2:	c7 45 e8 00 00 00 00 	mov    DWORD PTR [rbp-0x18],0x0
 1e9:	66 c7 45 ec 00 00    	mov    WORD PTR [rbp-0x14],0x0
 1ef:	c6 45 ee 00          	mov    BYTE PTR [rbp-0x12],0x0
 1f3:	48 8d 85 20 ff ff ff 	lea    rax,[rbp-0xe0]
 1fa:	48 05 6a 03 00 00    	add    rax,0x36a
 200:	48 89 85 18 ff ff ff 	mov    QWORD PTR [rbp-0xe8],rax
 207:	48 8b 85 18 ff ff ff 	mov    rax,QWORD PTR [rbp-0xe8]
 20e:	48 89 c7             	mov    rdi,rax
 211:	e8 00 00 00 00       	call   216 <test_const_local_arrays+0x1a9>
 216:	89 85 14 ff ff ff    	mov    DWORD PTR [rbp-0xec],eax
 21c:	83 bd 14 ff ff ff 09 	cmp    DWORD PTR [rbp-0xec],0x9
 223:	74 ce                	je     1f3 <test_const_local_arrays+0x186>
 225:	48 8b 85 18 ff ff ff 	mov    rax,QWORD PTR [rbp-0xe8]
 22c:	41 b8 06 00 00 00    	mov    r8d,0x6
 232:	48 89 c1             	mov    rcx,rax
 235:	48 8d 05 00 00 00 00 	lea    rax,[rip+0x0]        # 23c <test_const_local_arrays+0x1cf>
 23c:	48 89 c2             	mov    rdx,rax
 23f:	be 33 00 00 00       	mov    esi,0x33
 244:	48 8d 05 00 00 00 00 	lea    rax,[rip+0x0]        # 24b <test_const_local_arrays+0x1de>
 24b:	48 89 c7             	mov    rdi,rax
 24e:	b8 00 00 00 00       	mov    eax,0x0
 253:	e8 00 00 00 00       	call   258 <test_const_local_arrays+0x1eb>
 258:	8b 05 00 00 00 00    	mov    eax,DWORD PTR [rip+0x0]        # 25e <test_const_local_arrays+0x1f1>
 25e:	83 c0 01             	add    eax,0x1
 261:	89 05 00 00 00 00    	mov    DWORD PTR [rip+0x0],eax        # 267 <test_const_local_arrays+0x1fa>
 267:	eb 8a                	jmp    1f3 <test_const_local_arrays+0x186>
 269:	f3 0f 1e fa          	endbr64 
 26d:	55                   	push   rbp
 26e:	48 89 e5             	mov    rbp,rsp
 271:	48 83 ec 10          	sub    rsp,0x10
 275:	48 8d 05 00 00 00 00 	lea    rax,[rip+0x0]        # 27c <test_nonconst_global_arrays+0x13>
 27c:	48 89 45 f8          	mov    QWORD PTR [rbp-0x8],rax
 280:	48 8b 45 f8          	mov    rax,QWORD PTR [rbp-0x8]
 284:	48 89 c7             	mov    rdi,rax
 287:	e8 00 00 00 00       	call   28c <test_nonconst_global_arrays+0x23>
 28c:	89 45 f4             	mov    DWORD PTR [rbp-0xc],eax
 28f:	83 7d f4 11          	cmp    DWORD PTR [rbp-0xc],0x11
 293:	74 e0                	je     275 <test_nonconst_global_arrays+0xc>
 295:	48 8b 45 f8          	mov    rax,QWORD PTR [rbp-0x8]
 299:	41 b8 72 00 00 00    	mov    r8d,0x72
 29f:	48 89 c1             	mov    rcx,rax
 2a2:	48 8d 05 00 00 00 00 	lea    rax,[rip+0x0]        # 2a9 <test_nonconst_global_arrays+0x40>
 2a9:	48 89 c2             	mov    rdx,rax
 2ac:	be 41 00 00 00       	mov    esi,0x41
 2b1:	48 8d 05 00 00 00 00 	lea    rax,[rip+0x0]        # 2b8 <test_nonconst_global_arrays+0x4f>
 2b8:	48 89 c7             	mov    rdi,rax
 2bb:	b8 00 00 00 00       	mov    eax,0x0
 2c0:	e8 00 00 00 00       	call   2c5 <test_nonconst_global_arrays+0x5c>
 2c5:	8b 05 00 00 00 00    	mov    eax,DWORD PTR [rip+0x0]        # 2cb <test_nonconst_global_arrays+0x62>
 2cb:	83 c0 01             	add    eax,0x1
 2ce:	89 05 00 00 00 00    	mov    DWORD PTR [rip+0x0],eax        # 2d4 <test_nonconst_global_arrays+0x6b>
 2d4:	eb 9f                	jmp    275 <test_nonconst_global_arrays+0xc>
 2d6:	f3 0f 1e fa          	endbr64 
 2da:	55                   	push   rbp
 2db:	48 89 e5             	mov    rbp,rsp
 2de:	48 81 ec 50 04 00 00 	sub    rsp,0x450
 2e5:	64 48 8b 04 25 28 00 	mov    rax,QWORD PTR fs:0x28
 2ec:	00 00 
 2ee:	48 89 45 f8          	mov    QWORD PTR [rbp-0x8],rax
 2f2:	31 c0                	xor    eax,eax
 2f4:	48 8d 85 c0 fb ff ff 	lea    rax,[rbp-0x440]
 2fb:	48 8d 15 00 00 00 00 	lea    rdx,[rip+0x0]        # 302 <test_nonconst_local_arrays+0x2c>
 302:	b9 87 00 00 00       	mov    ecx,0x87
 307:	48 89 c7             	mov    rdi,rax
 30a:	48 89 d6             	mov    rsi,rdx
 30d:	f3 48 a5             	rep movs QWORD PTR es:[rdi],QWORD PTR ds:[rsi]
 310:	48 8d 85 c0 fb ff ff 	lea    rax,[rbp-0x440]
 317:	48 05 20 1c 00 00    	add    rax,0x1c20
 31d:	48 89 85 b8 fb ff ff 	mov    QWORD PTR [rbp-0x448],rax
 324:	48 8b 85 b8 fb ff ff 	mov    rax,QWORD PTR [rbp-0x448]
 32b:	48 89 c7             	mov    rdi,rax
 32e:	e8 00 00 00 00       	call   333 <test_nonconst_local_arrays+0x5d>
 333:	89 85 b4 fb ff ff    	mov    DWORD PTR [rbp-0x44c],eax
 339:	83 bd b4 fb ff ff 49 	cmp    DWORD PTR [rbp-0x44c],0x49
 340:	74 ce                	je     310 <test_nonconst_local_arrays+0x3a>
 342:	48 8b 85 b8 fb ff ff 	mov    rax,QWORD PTR [rbp-0x448]
 349:	41 b8 26 00 00 00    	mov    r8d,0x26
 34f:	48 89 c1             	mov    rcx,rax
 352:	48 8d 05 00 00 00 00 	lea    rax,[rip+0x0]        # 359 <test_nonconst_local_arrays+0x83>
 359:	48 89 c2             	mov    rdx,rax
 35c:	be 40 00 00 00       	mov    esi,0x40
 361:	48 8d 05 00 00 00 00 	lea    rax,[rip+0x0]        # 368 <test_nonconst_local_arrays+0x92>
 368:	48 89 c7             	mov    rdi,rax
 36b:	b8 00 00 00 00       	mov    eax,0x0
 370:	e8 00 00 00 00       	call   375 <test_nonconst_local_arrays+0x9f>
 375:	8b 05 00 00 00 00    	mov    eax,DWORD PTR [rip+0x0]        # 37b <test_nonconst_local_arrays+0xa5>
 37b:	83 c0 01             	add    eax,0x1
 37e:	89 05 00 00 00 00    	mov    DWORD PTR [rip+0x0],eax        # 384 <test_nonconst_local_arrays+0xae>
 384:	eb 8a                	jmp    310 <test_nonconst_local_arrays+0x3a>
 386:	f3 0f 1e fa          	endbr64 
 38a:	55                   	push   rbp
 38b:	48 89 e5             	mov    rbp,rsp
 38e:	48 83 ec 10          	sub    rsp,0x10
 392:	48 8d 05 00 00 00 00 	lea    rax,[rip+0x0]        # 399 <test_const_global_member_arrays+0x13>
 399:	48 89 45 f8          	mov    QWORD PTR [rbp-0x8],rax
 39d:	48 8b 45 f8          	mov    rax,QWORD PTR [rbp-0x8]
 3a1:	48 89 c7             	mov    rdi,rax
 3a4:	e8 00 00 00 00       	call   3a9 <test_const_global_member_arrays+0x23>
 3a9:	89 45 f4             	mov    DWORD PTR [rbp-0xc],eax
 3ac:	83 7d f4 0e          	cmp    DWORD PTR [rbp-0xc],0xe
 3b0:	74 e0                	je     392 <test_const_global_member_arrays+0xc>
 3b2:	48 8b 45 f8          	mov    rax,QWORD PTR [rbp-0x8]
 3b6:	41 b8 3c 00 00 00    	mov    r8d,0x3c
 3bc:	48 89 c1             	mov    rcx,rax
 3bf:	48 8d 05 00 00 00 00 	lea    rax,[rip+0x0]        # 3c6 <test_const_global_member_arrays+0x40>
 3c6:	48 89 c2             	mov    rdx,rax
 3c9:	be 03 00 00 00       	mov    esi,0x3
 3ce:	48 8d 05 00 00 00 00 	lea    rax,[rip+0x0]        # 3d5 <test_const_global_member_arrays+0x4f>
 3d5:	48 89 c7             	mov    rdi,rax
 3d8:	b8 00 00 00 00       	mov    eax,0x0
 3dd:	e8 00 00 00 00       	call   3e2 <test_const_global_member_arrays+0x5c>
 3e2:	8b 05 00 00 00 00    	mov    eax,DWORD PTR [rip+0x0]        # 3e8 <test_const_global_member_arrays+0x62>
 3e8:	83 c0 01             	add    eax,0x1
 3eb:	89 05 00 00 00 00    	mov    DWORD PTR [rip+0x0],eax        # 3f1 <test_const_global_member_arrays+0x6b>
 3f1:	eb 9f                	jmp    392 <test_const_global_member_arrays+0xc>
 3f3:	f3 0f 1e fa          	endbr64 
 3f7:	55                   	push   rbp
 3f8:	48 89 e5             	mov    rbp,rsp
 3fb:	48 81 ec 90 03 00 00 	sub    rsp,0x390
 402:	64 48 8b 04 25 28 00 	mov    rax,QWORD PTR fs:0x28
 409:	00 00 
 40b:	48 89 45 f8          	mov    QWORD PTR [rbp-0x8],rax
 40f:	31 c0                	xor    eax,eax
 411:	48 8d 85 80 fc ff ff 	lea    rax,[rbp-0x380]
 418:	48 8d 15 00 00 00 00 	lea    rdx,[rip+0x0]        # 41f <test_const_local_member_arrays+0x2c>
 41f:	b9 6d 00 00 00       	mov    ecx,0x6d
 424:	48 89 c7             	mov    rdi,rax
 427:	48 89 d6             	mov    rsi,rdx
 42a:	f3 48 a5             	rep movs QWORD PTR es:[rdi],QWORD PTR ds:[rsi]
 42d:	48 89 f2             	mov    rdx,rsi
 430:	48 89 f8             	mov    rax,rdi
 433:	8b 0a                	mov    ecx,DWORD PTR [rdx]
 435:	89 08                	mov    DWORD PTR [rax],ecx
 437:	48 8d 85 80 fc ff ff 	lea    rax,[rbp-0x380]
 43e:	48 05 a8 1d 00 00    	add    rax,0x1da8
 444:	48 89 85 78 fc ff ff 	mov    QWORD PTR [rbp-0x388],rax
 44b:	48 8b 85 78 fc ff ff 	mov    rax,QWORD PTR [rbp-0x388]
 452:	48 89 c7             	mov    rdi,rax
 455:	e8 00 00 00 00       	call   45a <test_const_local_member_arrays+0x67>
 45a:	89 85 74 fc ff ff    	mov    DWORD PTR [rbp-0x38c],eax
 460:	83 bd 74 fc ff ff 35 	cmp    DWORD PTR [rbp-0x38c],0x35
 467:	74 ce                	je     437 <test_const_local_member_arrays+0x44>
 469:	48 8b 85 78 fc ff ff 	mov    rax,QWORD PTR [rbp-0x388]
 470:	41 b8 0d 00 00 00    	mov    r8d,0xd
 476:	48 89 c1             	mov    rcx,rax
 479:	48 8d 05 00 00 00 00 	lea    rax,[rip+0x0]        # 480 <test_const_local_member_arrays+0x8d>
 480:	48 89 c2             	mov    rdx,rax
 483:	be 0b 00 00 00       	mov    esi,0xb
 488:	48 8d 05 00 00 00 00 	lea    rax,[rip+0x0]        # 48f <test_const_local_member_arrays+0x9c>
 48f:	48 89 c7             	mov    rdi,rax
 492:	b8 00 00 00 00       	mov    eax,0x0
 497:	e8 00 00 00 00       	call   49c <test_const_local_member_arrays+0xa9>
 49c:	8b 05 00 00 00 00    	mov    eax,DWORD PTR [rip+0x0]        # 4a2 <test_const_local_member_arrays+0xaf>
 4a2:	83 c0 01             	add    eax,0x1
 4a5:	89 05 00 00 00 00    	mov    DWORD PTR [rip+0x0],eax        # 4ab <test_const_local_member_arrays+0xb8>
 4ab:	eb 8a                	jmp    437 <test_const_local_member_arrays+0x44>
 4ad:	f3 0f 1e fa          	endbr64 
 4b1:	55                   	push   rbp
 4b2:	48 89 e5             	mov    rbp,rsp
 4b5:	48 83 ec 10          	sub    rsp,0x10
 4b9:	48 8d 05 00 00 00 00 	lea    rax,[rip+0x0]        # 4c0 <test_nonconst_global_member_arrays+0x13>
 4c0:	48 89 45 f8          	mov    QWORD PTR [rbp-0x8],rax
 4c4:	48 8b 45 f8          	mov    rax,QWORD PTR [rbp-0x8]
 4c8:	48 89 c7             	mov    rdi,rax
 4cb:	e8 00 00 00 00       	call   4d0 <test_nonconst_global_member_arrays+0x23>
 4d0:	89 45 f4             	mov    DWORD PTR [rbp-0xc],eax
 4d3:	83 7d f4 08          	cmp    DWORD PTR [rbp-0xc],0x8
 4d7:	74 e0                	je     4b9 <test_nonconst_global_member_arrays+0xc>
 4d9:	48 8b 45 f8          	mov    rax,QWORD PTR [rbp-0x8]
 4dd:	41 b8 4d 00 00 00    	mov    r8d,0x4d
 4e3:	48 89 c1             	mov    rcx,rax
 4e6:	48 8d 05 00 00 00 00 	lea    rax,[rip+0x0]        # 4ed <test_nonconst_global_member_arrays+0x40>
 4ed:	48 89 c2             	mov    rdx,rax
 4f0:	be 43 00 00 00       	mov    esi,0x43
 4f5:	48 8d 05 00 00 00 00 	lea    rax,[rip+0x0]        # 4fc <test_nonconst_global_member_arrays+0x4f>
 4fc:	48 89 c7             	mov    rdi,rax
 4ff:	b8 00 00 00 00       	mov    eax,0x0
 504:	e8 00 00 00 00       	call   509 <test_nonconst_global_member_arrays+0x5c>
 509:	8b 05 00 00 00 00    	mov    eax,DWORD PTR [rip+0x0]        # 50f <test_nonconst_global_member_arrays+0x62>
 50f:	83 c0 01             	add    eax,0x1
 512:	89 05 00 00 00 00    	mov    DWORD PTR [rip+0x0],eax        # 518 <test_nonconst_global_member_arrays+0x6b>
 518:	eb 9f                	jmp    4b9 <test_nonconst_global_member_arrays+0xc>
 51a:	f3 0f 1e fa          	endbr64 
 51e:	55                   	push   rbp
 51f:	48 89 e5             	mov    rbp,rsp
 522:	48 81 ec 90 03 00 00 	sub    rsp,0x390
 529:	64 48 8b 04 25 28 00 	mov    rax,QWORD PTR fs:0x28
 530:	00 00 
 532:	48 89 45 f8          	mov    QWORD PTR [rbp-0x8],rax
 536:	31 c0                	xor    eax,eax
 538:	48 8d 85 80 fc ff ff 	lea    rax,[rbp-0x380]
 53f:	48 8d 15 00 00 00 00 	lea    rdx,[rip+0x0]        # 546 <test_nonconst_local_member_arrays+0x2c>
 546:	b9 6d 00 00 00       	mov    ecx,0x6d
 54b:	48 89 c7             	mov    rdi,rax
 54e:	48 89 d6             	mov    rsi,rdx
 551:	f3 48 a5             	rep movs QWORD PTR es:[rdi],QWORD PTR ds:[rsi]
 554:	48 89 f2             	mov    rdx,rsi
 557:	48 89 f8             	mov    rax,rdi
 55a:	8b 0a                	mov    ecx,DWORD PTR [rdx]
 55c:	89 08                	mov    DWORD PTR [rax],ecx
 55e:	48 8d 85 80 fc ff ff 	lea    rax,[rbp-0x380]
 565:	48 05 d2 12 00 00    	add    rax,0x12d2
 56b:	48 89 85 78 fc ff ff 	mov    QWORD PTR [rbp-0x388],rax
 572:	48 8b 85 78 fc ff ff 	mov    rax,QWORD PTR [rbp-0x388]
 579:	48 89 c7             	mov    rdi,rax
 57c:	e8 00 00 00 00       	call   581 <test_nonconst_local_member_arrays+0x67>
 581:	89 85 74 fc ff ff    	mov    DWORD PTR [rbp-0x38c],eax
 587:	83 bd 74 fc ff ff 4a 	cmp    DWORD PTR [rbp-0x38c],0x4a
 58e:	74 ce                	je     55e <test_nonconst_local_member_arrays+0x44>
 590:	48 8b 85 78 fc ff ff 	mov    rax,QWORD PTR [rbp-0x388]
 597:	41 b8 44 00 00 00    	mov    r8d,0x44
 59d:	48 89 c1             	mov    rcx,rax
 5a0:	48 8d 05 00 00 00 00 	lea    rax,[rip+0x0]        # 5a7 <test_nonconst_local_member_arrays+0x8d>
 5a7:	48 89 c2             	mov    rdx,rax
 5aa:	be 5b 00 00 00       	mov    esi,0x5b
 5af:	48 8d 05 00 00 00 00 	lea    rax,[rip+0x0]        # 5b6 <test_nonconst_local_member_arrays+0x9c>
 5b6:	48 89 c7             	mov    rdi,rax
 5b9:	b8 00 00 00 00       	mov    eax,0x0
 5be:	e8 00 00 00 00       	call   5c3 <test_nonconst_local_member_arrays+0xa9>
 5c3:	8b 05 00 00 00 00    	mov    eax,DWORD PTR [rip+0x0]        # 5c9 <test_nonconst_local_member_arrays+0xaf>
 5c9:	83 c0 01             	add    eax,0x1
 5cc:	89 05 00 00 00 00    	mov    DWORD PTR [rip+0x0],eax        # 5d2 <test_nonconst_local_member_arrays+0xb8>
 5d2:	eb 8a                	jmp    55e <test_nonconst_local_member_arrays+0x44>
 5d4:	f3 0f 1e fa          	endbr64 
 5d8:	55                   	push   rbp
 5d9:	48 89 e5             	mov    rbp,rsp
 5dc:	48 81 ec 90 00 00 00 	sub    rsp,0x90
 5e3:	64 48 8b 04 25 28 00 	mov    rax,QWORD PTR fs:0x28
 5ea:	00 00 
 5ec:	48 89 45 f8          	mov    QWORD PTR [rbp-0x8],rax
 5f0:	31 c0                	xor    eax,eax
 5f2:	48 8d 05 00 00 00 00 	lea    rax,[rip+0x0]        # 5f9 <test_const_union_member_arrays+0x25>
 5f9:	48 89 85 78 ff ff ff 	mov    QWORD PTR [rbp-0x88],rax
 600:	48 8b 85 78 ff ff ff 	mov    rax,QWORD PTR [rbp-0x88]
 607:	48 89 c7             	mov    rdi,rax
 60a:	e8 00 00 00 00       	call   60f <test_const_union_member_arrays+0x3b>
 60f:	89 85 74 ff ff ff    	mov    DWORD PTR [rbp-0x8c],eax
 615:	83 bd 74 ff ff ff 1f 	cmp    DWORD PTR [rbp-0x8c],0x1f
 61c:	74 d4                	je     5f2 <test_const_union_member_arrays+0x1e>
 61e:	48 8b 85 78 ff ff ff 	mov    rax,QWORD PTR [rbp-0x88]
 625:	41 b8 29 00 00 00    	mov    r8d,0x29
 62b:	48 89 c1             	mov    rcx,rax
 62e:	48 8d 05 00 00 00 00 	lea    rax,[rip+0x0]        # 635 <test_const_union_member_arrays+0x61>
 635:	48 89 c2             	mov    rdx,rax
 638:	be 4c 00 00 00       	mov    esi,0x4c
 63d:	48 8d 05 00 00 00 00 	lea    rax,[rip+0x0]        # 644 <test_const_union_member_arrays+0x70>
 644:	48 89 c7             	mov    rdi,rax
 647:	b8 00 00 00 00       	mov    eax,0x0
 64c:	e8 00 00 00 00       	call   651 <test_const_union_member_arrays+0x7d>
 651:	8b 05 00 00 00 00    	mov    eax,DWORD PTR [rip+0x0]        # 657 <test_const_union_member_arrays+0x83>
 657:	83 c0 01             	add    eax,0x1
 65a:	89 05 00 00 00 00    	mov    DWORD PTR [rip+0x0],eax        # 660 <test_const_union_member_arrays+0x8c>
 660:	eb 90                	jmp    5f2 <test_const_union_member_arrays+0x1e>
 662:	f3 0f 1e fa          	endbr64 
 666:	55                   	push   rbp
 667:	48 89 e5             	mov    rbp,rsp
 66a:	48 81 ec 90 00 00 00 	sub    rsp,0x90
 671:	64 48 8b 04 25 28 00 	mov    rax,QWORD PTR fs:0x28
 678:	00 00 
 67a:	48 89 45 f8          	mov    QWORD PTR [rbp-0x8],rax
 67e:	31 c0                	xor    eax,eax
 680:	48 8d 05 00 00 00 00 	lea    rax,[rip+0x0]        # 687 <test_nonconst_union_member_arrays+0x25>
 687:	48 89 85 78 ff ff ff 	mov    QWORD PTR [rbp-0x88],rax
 68e:	48 8b 85 78 ff ff ff 	mov    rax,QWORD PTR [rbp-0x88]
 695:	48 89 c7             	mov    rdi,rax
 698:	e8 00 00 00 00       	call   69d <test_nonconst_union_member_arrays+0x3b>
 69d:	89 85 74 ff ff ff    	mov    DWORD PTR [rbp-0x8c],eax
 6a3:	83 bd 74 ff ff ff 1b 	cmp    DWORD PTR [rbp-0x8c],0x1b
 6aa:	74 d4                	je     680 <test_nonconst_union_member_arrays+0x1e>
 6ac:	48 8b 85 78 ff ff ff 	mov    rax,QWORD PTR [rbp-0x88]
 6b3:	41 b8 1d 00 00 00    	mov    r8d,0x1d
 6b9:	48 89 c1             	mov    rcx,rax
 6bc:	48 8d 05 00 00 00 00 	lea    rax,[rip+0x0]        # 6c3 <test_nonconst_union_member_arrays+0x61>
 6c3:	48 89 c2             	mov    rdx,rax
 6c6:	be 55 00 00 00       	mov    esi,0x55
 6cb:	48 8d 05 00 00 00 00 	lea    rax,[rip+0x0]        # 6d2 <test_nonconst_union_member_arrays+0x70>
 6d2:	48 89 c7             	mov    rdi,rax
 6d5:	b8 00 00 00 00       	mov    eax,0x0
 6da:	e8 00 00 00 00       	call   6df <test_nonconst_union_member_arrays+0x7d>
 6df:	8b 05 00 00 00 00    	mov    eax,DWORD PTR [rip+0x0]        # 6e5 <test_nonconst_union_member_arrays+0x83>
 6e5:	83 c0 01             	add    eax,0x1
 6e8:	89 05 00 00 00 00    	mov    DWORD PTR [rip+0x0],eax        # 6ee <test_nonconst_union_member_arrays+0x8c>
 6ee:	eb 90                	jmp    680 <test_nonconst_union_member_arrays+0x1e>
 6f0:	f3 0f 1e fa          	endbr64 
 6f4:	55                   	push   rbp
 6f5:	48 89 e5             	mov    rbp,rsp
 6f8:	e8 03 f9 ff ff       	call   0 <test_const_global_arrays>
 6fd:	e8 6b f9 ff ff       	call   6d <test_const_local_arrays>
 702:	e8 62 fb ff ff       	call   269 <test_nonconst_global_arrays>
 707:	e8 ca fb ff ff       	call   2d6 <test_nonconst_local_arrays>
 70c:	e8 75 fc ff ff       	call   386 <test_const_global_member_arrays>
 711:	e8 dd fc ff ff       	call   3f3 <test_const_local_member_arrays>
 716:	e8 92 fd ff ff       	call   4ad <test_nonconst_global_member_arrays>
 71b:	e8 fa fd ff ff       	call   51a <test_nonconst_local_member_arrays>
 720:	e8 af fe ff ff       	call   5d4 <test_const_union_member_arrays>
 725:	e8 38 ff ff ff       	call   662 <test_nonconst_union_member_arrays>
 72a:	8b 05 00 00 00 00    	mov    eax,DWORD PTR [rip+0x0]        # 730 <main+0x40>
 730:	85 c0                	test   eax,eax
 732:	74 05                	je     739 <main+0x49>
 734:	e8 00 00 00 00       	call   739 <main+0x49>
 739:	b8 00 00 00 00       	mov    eax,0x0
 73e:	5d                   	pop    rbp
 73f:	c3                   	ret    
